; Function Attrs: mustprogress uwtable
define noundef i64 @_Z18logged_rv64i_sltiuP11processor_t6insn_tm(ptr noundef %0, i64 %1, i64 noundef %2) local_unnamed_addr #6 {
  %4 = alloca i64, align 8
  %5 = getelementptr inbounds nuw i8, ptr %0, i64 256
  %6 = lshr i64 %1, 15
  %7 = and i64 %6, 31
  %8 = getelementptr inbounds nuw [32 x i64], ptr %5, i64 0, i64 %7
  %9 = load i64, ptr %8, align 8, !tbaa !3
  %10 = shl i64 %1, 32
  %11 = ashr i64 %10, 52
  %12 = icmp ult i64 %9, %11
  %13 = zext i1 %12 to i64
  %14 = getelementptr inbounds nuw i8, ptr %0, i64 3840
  call void @llvm.lifetime.start.p0(i64 8, ptr nonnull %4) #15
  %15 = lshr i64 %1, 7
  %16 = and i64 %15, 31
  %17 = shl nuw nsw i64 %16, 4
  store i64 %17, ptr %4, align 8, !tbaa !3
  %18 = call noundef nonnull align 8 dereferenceable(16) ptr @_ZNSt3mapIm10float128_tSt4lessImESaISt4pairIKmS0_EEEixEOm(ptr noundef nonnull align 8 dereferenceable(48) %14, ptr noundef nonnull align 8 dereferenceable(8) %4)
  store i64 %13, ptr %18, align 8
  %.sroa.4.0..sroa_idx = getelementptr inbounds nuw i8, ptr %18, i64 8
  store i64 0, ptr %.sroa.4.0..sroa_idx, align 8, !tbaa !7
  call void @llvm.lifetime.end.p0(i64 8, ptr nonnull %4) #15
  %.not.i = icmp eq i64 %16, 0
  br i1 %.not.i, label %_ZN9regfile_tImLm32ELb1EE5writeEmm.exit, label %19

19:                                               ; preds = %3
  %20 = getelementptr inbounds nuw [32 x i64], ptr %5, i64 0, i64 %16
  store i64 %13, ptr %20, align 8, !tbaa !3
  br label %_ZN9regfile_tImLm32ELb1EE5writeEmm.exit

_ZN9regfile_tImLm32ELb1EE5writeEmm.exit:          ; preds = %3, %19
  %21 = add i64 %2, 4
  ret i64 %21
}